target datalayout = "e-m:e-p270:32:32-p271:32:32-p272:64:64-i64:64-i128:128-f80:128-n8:16:32:64-S128"
target triple = "x86_64-pc-linux-gnu"

%struct.redisServer = type { i32, i64, ptr, ptr, ptr, i32, i32, i32, i32, i32, ptr, ptr, ptr, ptr, ptr, i32, i32, i32, i32, i64, i32, i32, i32, i32, ptr, i32, i32, [41 x i8], i32, i64, i32, i32, i32, ptr, ptr, i32, i32, i64, ptr, ptr, ptr, ptr, [2 x i32], i32, i32, i32, i32, i32, i32, [16 x ptr], i32, ptr, ptr, i32, [8 x %struct.connListener], i32, %struct.connListener, ptr, ptr, ptr, ptr, ptr, ptr, ptr, ptr, ptr, ptr, i32, ptr, i32, ptr, [3 x %struct.pause_event], [256 x i8], ptr, i64, i32, i32, [128 x i32], i32, i32, i64, i32, i32, i32, i32, i32, i64, i64, i64, i64, i64, i64, i64, i64, i64, i64, double, i64, i64, i64, i64, i64, i64, i64, i64, i64, i64, i64, i64, i64, i64, i64, i64, i64, i64, i64, i64, i64, double, i64, i64, i64, i64, i64, ptr, i64, i64, i64, %struct.malloc_stats, i64, i64, i64, i64, i64, i64, i64, i64, i64, i64, i64, i64, double, [4 x i64], i64, i64, i64, i64, [128 x i64], [128 x i64], i64, i64, [7 x %struct.anon], i64, i64, i64, i64, i64, i64, [4 x %struct.durationStats], i32, i32, i32, i32, i32, i32, i32, i32, i32, i32, i32, i32, i64, i32, i32, i32, i32, i64, i64, i32, i32, i32, i32, i32, ptr, [3 x %struct.clientBufferLimitsConfig], i32, i32, i32, ptr, i32, i32, i32, i32, i32, i32, ptr, ptr, i32, i32, i64, i64, i64, i64, i64, i32, i32, ptr, i32, i32, i64, i64, i64, i64, i64, i32, i32, i64, i32, i32, i32, i32, i32, i32, i32, i32, ptr, i32, i64, i64, i64, i64, i32, ptr, i32, ptr, i32, i32, i32, i64, i64, i64, i64, i32, i32, i32, i32, i32, i32, ptr, i32, i32, ptr, i32, i32, i32, [2 x i32], i32, %struct.redisOpArray, i32, ptr, i32, ptr, i32, i32, i32, i32, i32, i32, i32, [41 x i8], [41 x i8], i64, i64, i64, i64, i32, i32, ptr, i64, i64, %struct.replDataBuf, i64, i64, i32, i32, i32, i32, i32, i32, i32, i32, i32, i64, ptr, i64, ptr, ptr, ptr, i32, i32, ptr, ptr, i32, i32, i32, i64, i64, i64, i64, ptr, ptr, i32, ptr, i64, i32, i32, i32, i64, i32, i32, i32, i32, ptr, i32, i32, [41 x i8], i64, i32, ptr, i32, i32, i64, i64, i32, i32, i32, i32, i32, i64, [3 x i32], i32, i32, i32, [10 x i32], ptr, ptr, i32, i64, ptr, ptr, i32, i32, i32, i32, i64, i64, i64, i64, i64, i64, i64, i64, i64, i64, i32, i32, i64, i64, i32, i64, i64, i64, i64, i64, ptr, ptr, i32, ptr, i32, i32, i32, i32, i64, i64, ptr, ptr, i32, i32, i32, i32, i32, ptr, ptr, ptr, i32, i32, i32, i32, i32, i32, i32, i64, i32, i32, i64, i32, i32, i32, i32, i32, i32, i32, i64, ptr, ptr, i64, ptr, i32, %struct.aclInfo, i32, i64, i32, i32, i32, %struct.redisTLSContextConfig, ptr, ptr, ptr, ptr, ptr, i64, i32, ptr, i32, i32, i32, i64, i32, ptr }
%struct.connListener = type { [16 x i32], i32, ptr, i32, i32, ptr, ptr }
%struct.pause_event = type { i32, i64 }
%struct.malloc_stats = type { i64, i64, i64, i64, i64, i64, i64, i64, i64, i64, i64 }
%struct.anon = type { i64, i64, [16 x i64], i32 }
%struct.durationStats = type { i64, i64, i64 }
%struct.clientBufferLimitsConfig = type { i64, i64, i64 }
%struct.redisOpArray = type { ptr, i32, i32 }
%struct.replDataBuf = type { ptr, i64, i64, i64, i64 }
%struct.aclInfo = type { i64, i64, i64, i64 }
%struct.redisTLSContextConfig = type { ptr, ptr, ptr, ptr, ptr, ptr, ptr, ptr, ptr, ptr, ptr, ptr, i32, i32, i32, i32 }
%struct.latencyTimeSeries = type { i32, i32, [160 x %struct.latencySample] }
%struct.latencySample = type { i32, i32 }

@server = external global %struct.redisServer, align 8

; Function Attrs: nounwind uwtable
define dso_local void @latencyAddSample(ptr noundef %0, i64 noundef %1) #0 {
  %3 = alloca ptr, align 8
  %4 = alloca i64, align 8
  %5 = alloca ptr, align 8
  %6 = alloca i64, align 8
  %7 = alloca i32, align 4
  %8 = alloca i32, align 4
  store ptr %0, ptr %3, align 8, !tbaa !40
  store i64 %1, ptr %4, align 8, !tbaa !41
  call void @llvm.lifetime.start.p0(i64 8, ptr %5) #10
  %9 = load ptr, ptr getelementptr inbounds nuw (%struct.redisServer, ptr @server, i32 0, i32 413), align 8, !tbaa !11
  %10 = load ptr, ptr %3, align 8, !tbaa !40
  %11 = call ptr @dictFetchValue(ptr noundef %9, ptr noundef %10)
  store ptr %11, ptr %5, align 8, !tbaa !42
  call void @llvm.lifetime.start.p0(i64 8, ptr %6) #10
  %12 = call i64 @time(ptr noundef null) #10
  store i64 %12, ptr %6, align 8, !tbaa !44
  call void @llvm.lifetime.start.p0(i64 4, ptr %7) #10
  %13 = load ptr, ptr %5, align 8, !tbaa !42
  %14 = icmp eq ptr %13, null
  br i1 %14, label %15, label %29

15:                                               ; preds = %2
  %16 = call noalias ptr @zmalloc(i64 noundef 1288) #11
  store ptr %16, ptr %5, align 8, !tbaa !42
  %17 = load ptr, ptr %5, align 8, !tbaa !42
  %18 = getelementptr inbounds nuw %struct.latencyTimeSeries, ptr %17, i32 0, i32 0
  store i32 0, ptr %18, align 4, !tbaa !45
  %19 = load ptr, ptr %5, align 8, !tbaa !42
  %20 = getelementptr inbounds nuw %struct.latencyTimeSeries, ptr %19, i32 0, i32 1
  store i32 0, ptr %20, align 4, !tbaa !47
  %21 = load ptr, ptr %5, align 8, !tbaa !42
  %22 = getelementptr inbounds nuw %struct.latencyTimeSeries, ptr %21, i32 0, i32 2
  %23 = getelementptr inbounds [160 x %struct.latencySample], ptr %22, i64 0, i64 0
  call void @llvm.memset.p0.i64(ptr align 4 %23, i8 0, i64 1280, i1 false)
  %24 = load ptr, ptr getelementptr inbounds nuw (%struct.redisServer, ptr @server, i32 0, i32 413), align 8, !tbaa !11
  %25 = load ptr, ptr %3, align 8, !tbaa !40
  %26 = call noalias ptr @zstrdup(ptr noundef %25)
  %27 = load ptr, ptr %5, align 8, !tbaa !42
  %28 = call i32 @dictAdd(ptr noundef %24, ptr noundef %26, ptr noundef %27)
  br label %29

29:                                               ; preds = %15, %2
  %30 = load i64, ptr %4, align 8, !tbaa !41
  %31 = load ptr, ptr %5, align 8, !tbaa !42
  %32 = getelementptr inbounds nuw %struct.latencyTimeSeries, ptr %31, i32 0, i32 1
  %33 = load i32, ptr %32, align 4, !tbaa !47
  %34 = zext i32 %33 to i64
  %35 = icmp sgt i64 %30, %34
  br i1 %35, label %36, label %41

36:                                               ; preds = %29
  %37 = load i64, ptr %4, align 8, !tbaa !41
  %38 = trunc i64 %37 to i32
  %39 = load ptr, ptr %5, align 8, !tbaa !42
  %40 = getelementptr inbounds nuw %struct.latencyTimeSeries, ptr %39, i32 0, i32 1
  store i32 %38, ptr %40, align 4, !tbaa !47
  br label %41

41:                                               ; preds = %36, %29
  %42 = load ptr, ptr %5, align 8, !tbaa !42
  %43 = getelementptr inbounds nuw %struct.latencyTimeSeries, ptr %42, i32 0, i32 0
  %44 = load i32, ptr %43, align 4, !tbaa !45
  %45 = add nsw i32 %44, 160
  %46 = sub nsw i32 %45, 1
  %47 = srem i32 %46, 160
  store i32 %47, ptr %7, align 4, !tbaa !48
  %48 = load ptr, ptr %5, align 8, !tbaa !42
  %49 = getelementptr inbounds nuw %struct.latencyTimeSeries, ptr %48, i32 0, i32 2
  %50 = load i32, ptr %7, align 4, !tbaa !48
  %51 = sext i32 %50 to i64
  %52 = getelementptr inbounds [160 x %struct.latencySample], ptr %49, i64 0, i64 %51
  %53 = getelementptr inbounds nuw %struct.latencySample, ptr %52, i32 0, i32 0
  %54 = load i32, ptr %53, align 4, !tbaa !49
  %55 = sext i32 %54 to i64
  %56 = load i64, ptr %6, align 8, !tbaa !44
  %57 = icmp eq i64 %55, %56
  br i1 %57, label %58, label %79

58:                                               ; preds = %41
  %59 = load i64, ptr %4, align 8, !tbaa !41
  %60 = load ptr, ptr %5, align 8, !tbaa !42
  %61 = getelementptr inbounds nuw %struct.latencyTimeSeries, ptr %60, i32 0, i32 2
  %62 = load i32, ptr %7, align 4, !tbaa !48
  %63 = sext i32 %62 to i64
  %64 = getelementptr inbounds [160 x %struct.latencySample], ptr %61, i64 0, i64 %63
  %65 = getelementptr inbounds nuw %struct.latencySample, ptr %64, i32 0, i32 1
  %66 = load i32, ptr %65, align 4, !tbaa !51
  %67 = zext i32 %66 to i64
  %68 = icmp sgt i64 %59, %67
  br i1 %68, label %69, label %78

69:                                               ; preds = %58
  %70 = load i64, ptr %4, align 8, !tbaa !41
  %71 = trunc i64 %70 to i32
  %72 = load ptr, ptr %5, align 8, !tbaa !42
  %73 = getelementptr inbounds nuw %struct.latencyTimeSeries, ptr %72, i32 0, i32 2
  %74 = load i32, ptr %7, align 4, !tbaa !48
  %75 = sext i32 %74 to i64
  %76 = getelementptr inbounds [160 x %struct.latencySample], ptr %73, i64 0, i64 %75
  %77 = getelementptr inbounds nuw %struct.latencySample, ptr %76, i32 0, i32 1
  store i32 %71, ptr %77, align 4, !tbaa !51
  br label %78

78:                                               ; preds = %69, %58
  store i32 1, ptr %8, align 4
  br label %112

79:                                               ; preds = %41
  %80 = load i64, ptr %6, align 8, !tbaa !44
  %81 = trunc i64 %80 to i32
  %82 = load ptr, ptr %5, align 8, !tbaa !42
  %83 = getelementptr inbounds nuw %struct.latencyTimeSeries, ptr %82, i32 0, i32 2
  %84 = load ptr, ptr %5, align 8, !tbaa !42
  %85 = getelementptr inbounds nuw %struct.latencyTimeSeries, ptr %84, i32 0, i32 0
  %86 = load i32, ptr %85, align 4, !tbaa !45
  %87 = sext i32 %86 to i64
  %88 = getelementptr inbounds [160 x %struct.latencySample], ptr %83, i64 0, i64 %87
  %89 = getelementptr inbounds nuw %struct.latencySample, ptr %88, i32 0, i32 0
  store i32 %81, ptr %89, align 4, !tbaa !49
  %90 = load i64, ptr %4, align 8, !tbaa !41
  %91 = trunc i64 %90 to i32
  %92 = load ptr, ptr %5, align 8, !tbaa !42
  %93 = getelementptr inbounds nuw %struct.latencyTimeSeries, ptr %92, i32 0, i32 2
  %94 = load ptr, ptr %5, align 8, !tbaa !42
  %95 = getelementptr inbounds nuw %struct.latencyTimeSeries, ptr %94, i32 0, i32 0
  %96 = load i32, ptr %95, align 4, !tbaa !45
  %97 = sext i32 %96 to i64
  %98 = getelementptr inbounds [160 x %struct.latencySample], ptr %93, i64 0, i64 %97
  %99 = getelementptr inbounds nuw %struct.latencySample, ptr %98, i32 0, i32 1
  store i32 %91, ptr %99, align 4, !tbaa !51
  %100 = load ptr, ptr %5, align 8, !tbaa !42
  %101 = getelementptr inbounds nuw %struct.latencyTimeSeries, ptr %100, i32 0, i32 0
  %102 = load i32, ptr %101, align 4, !tbaa !45
  %103 = add nsw i32 %102, 1
  store i32 %103, ptr %101, align 4, !tbaa !45
  %104 = load ptr, ptr %5, align 8, !tbaa !42
  %105 = getelementptr inbounds nuw %struct.latencyTimeSeries, ptr %104, i32 0, i32 0
  %106 = load i32, ptr %105, align 4, !tbaa !45
  %107 = icmp eq i32 %106, 160
  br i1 %107, label %108, label %111

108:                                              ; preds = %79
  %109 = load ptr, ptr %5, align 8, !tbaa !42
  %110 = getelementptr inbounds nuw %struct.latencyTimeSeries, ptr %109, i32 0, i32 0
  store i32 0, ptr %110, align 4, !tbaa !45
  br label %111

111:                                              ; preds = %108, %79
  store i32 0, ptr %8, align 4
  br label %112

112:                                              ; preds = %111, %78
  call void @llvm.lifetime.end.p0(i64 4, ptr %7) #10
  call void @llvm.lifetime.end.p0(i64 8, ptr %6) #10
  call void @llvm.lifetime.end.p0(i64 8, ptr %5) #10
  %113 = load i32, ptr %8, align 4
  switch i32 %113, label %115 [
    i32 0, label %114
    i32 1, label %114
  ]

114:                                              ; preds = %112, %112
  ret void

115:                                              ; preds = %112
  unreachable
}