; Function Attrs: nounwind uwtable
define dso_local void @latencyAddSample(ptr noundef %0, i64 noundef %1) local_unnamed_addr #2 {
  %3 = load ptr, ptr getelementptr inbounds nuw (i8, ptr @server, i64 8072), align 8, !tbaa !5
  %4 = tail call ptr @dictFetchValue(ptr noundef %3, ptr noundef %0) #14
  %5 = tail call i64 @time(ptr noundef null) #14
  %6 = icmp eq ptr %4, null
  br i1 %6, label %7, label %12

7:                                                ; preds = %2
  %8 = tail call noalias dereferenceable_or_null(1288) ptr @zmalloc(i64 noundef 1288) #15
  tail call void @llvm.memset.p0.i64(ptr noundef nonnull align 4 dereferenceable(1288) %8, i8 0, i64 1288, i1 false)
  %9 = load ptr, ptr getelementptr inbounds nuw (i8, ptr @server, i64 8072), align 8, !tbaa !5
  %10 = tail call noalias ptr @zstrdup(ptr noundef %0) #14
  %11 = tail call i32 @dictAdd(ptr noundef %9, ptr noundef %10, ptr noundef nonnull %8) #14
  br label %12

12:                                               ; preds = %7, %2
  %.0 = phi ptr [ %8, %7 ], [ %4, %2 ]
  %13 = getelementptr inbounds nuw i8, ptr %.0, i64 4
  %14 = load i32, ptr %13, align 4, !tbaa !38
  %15 = zext i32 %14 to i64
  %16 = icmp sgt i64 %1, %15
  br i1 %16, label %17, label %19

17:                                               ; preds = %12
  %18 = trunc i64 %1 to i32
  store i32 %18, ptr %13, align 4, !tbaa !38
  br label %19

19:                                               ; preds = %17, %12
  %20 = load i32, ptr %.0, align 4, !tbaa !40
  %21 = add nsw i32 %20, 159
  %22 = srem i32 %21, 160
  %23 = getelementptr inbounds nuw i8, ptr %.0, i64 8
  %24 = sext i32 %22 to i64
  %25 = getelementptr inbounds [160 x %struct.latencySample], ptr %23, i64 0, i64 %24
  %26 = load i32, ptr %25, align 4, !tbaa !41
  %27 = sext i32 %26 to i64
  %28 = icmp eq i64 %5, %27
  br i1 %28, label %29, label %36

29:                                               ; preds = %19
  %30 = getelementptr inbounds nuw i8, ptr %25, i64 4
  %31 = load i32, ptr %30, align 4, !tbaa !43
  %32 = zext i32 %31 to i64
  %33 = icmp sgt i64 %1, %32
  br i1 %33, label %34, label %44

34:                                               ; preds = %29
  %35 = trunc i64 %1 to i32
  store i32 %35, ptr %30, align 4, !tbaa !43
  br label %44

36:                                               ; preds = %19
  %37 = trunc i64 %5 to i32
  %38 = sext i32 %20 to i64
  %39 = getelementptr inbounds [160 x %struct.latencySample], ptr %23, i64 0, i64 %38
  store i32 %37, ptr %39, align 4, !tbaa !41
  %40 = trunc i64 %1 to i32
  %.idx = shl nsw i64 %38, 3
  %.offs = or disjoint i64 %.idx, 4
  %41 = getelementptr inbounds i8, ptr %23, i64 %.offs
  store i32 %40, ptr %41, align 4, !tbaa !43
  %42 = add nsw i32 %20, 1
  %43 = icmp eq i32 %42, 160
  %spec.select = select i1 %43, i32 0, i32 %42
  store i32 %spec.select, ptr %.0, align 4, !tbaa !40
  br label %44

44:                                               ; preds = %29, %34, %36
  ret void
}